target datalayout = "e-m:e-p270:32:32-p271:32:32-p272:64:64-i64:64-i128:128-f80:128-n8:16:32:64-S128"
target triple = "x86_64-pc-linux-gnu"

%class.MethodLiveness = type { ptr, ptr, i32, i32, ptr, i32, ptr, ptr, %class.ArenaBitMap }
%class.ArenaBitMap = type { %class.GrowableBitMap, ptr }
%class.GrowableBitMap = type { %class.BitMap }
%class.BitMap = type { ptr, i64 }
%class.GrowableArray = type { %class.GrowableArrayWithAllocator, %class.GrowableArrayMetadata }
%class.GrowableArrayWithAllocator = type { %class.GrowableArrayView }
%class.GrowableArrayView = type { %class.GrowableArrayBase, ptr }
%class.GrowableArrayBase = type { i32, i32 }
%class.GrowableArrayMetadata = type { i64 }
%"class.MethodLiveness::BasicBlock" = type <{ ptr, i32, i32, %class.ArenaBitMap, %class.ArenaBitMap, %class.ArenaBitMap, %class.ArenaBitMap, %class.ArenaBitMap, i32, [4 x i8], ptr, ptr, ptr, i8, [7 x i8] }>

; Function Attrs: mustprogress nounwind uwtable
define linkonce_odr hidden void @_ZN17GrowableArrayBaseC2Eii(ptr noundef nonnull align 4 dereferenceable(8) %0, i32 noundef %1, i32 noundef %2) unnamed_addr #1 comdat align 2 {
  %4 = alloca ptr, align 8
  %5 = alloca i32, align 4
  %6 = alloca i32, align 4
  store ptr %0, ptr %4, align 8
  store i32 %1, ptr %5, align 4
  store i32 %2, ptr %6, align 4
  %7 = load ptr, ptr %4, align 8
  %8 = getelementptr inbounds %class.GrowableArrayBase, ptr %7, i32 0, i32 0
  %9 = load i32, ptr %6, align 4
  store i32 %9, ptr %8, align 4
  %10 = getelementptr inbounds %class.GrowableArrayBase, ptr %7, i32 0, i32 1
  %11 = load i32, ptr %5, align 4
  store i32 %11, ptr %10, align 4
  ret void
}

; Function Attrs: mustprogress nounwind uwtable
define linkonce_odr hidden noundef i64 @_ZN21GrowableArrayMetadata4bitsEP5Arena(ptr noundef %0) #1 comdat align 2 {
  %2 = alloca ptr, align 8
  store ptr %0, ptr %2, align 8
  %3 = load ptr, ptr %2, align 8
  %4 = ptrtoint ptr %3 to i64
  ret i64 %4
}

; Function Attrs: mustprogress nounwind uwtable
define linkonce_odr hidden void @_ZN17GrowableArrayViewIPN14MethodLiveness10BasicBlockEEC2EPS2_ii(ptr noundef nonnull align 8 dereferenceable(16) %0, ptr noundef %1, i32 noundef %2, i32 noundef %3) unnamed_addr #1 comdat align 2 {
  %5 = alloca ptr, align 8
  %6 = alloca ptr, align 8
  %7 = alloca i32, align 4
  %8 = alloca i32, align 4
  store ptr %0, ptr %5, align 8
  store ptr %1, ptr %6, align 8
  store i32 %2, ptr %7, align 4
  store i32 %3, ptr %8, align 4
  %9 = load ptr, ptr %5, align 8
  %10 = load i32, ptr %7, align 4
  %11 = load i32, ptr %8, align 4
  call void @_ZN17GrowableArrayBaseC2Eii(ptr noundef nonnull align 4 dereferenceable(8) %9, i32 noundef %10, i32 noundef %11)
  %12 = getelementptr inbounds %class.GrowableArrayView, ptr %9, i32 0, i32 1
  %13 = load ptr, ptr %6, align 8
  store ptr %13, ptr %12, align 8
  ret void
}

; Function Attrs: mustprogress nounwind uwtable
define linkonce_odr hidden void @_ZNK13GrowableArrayIPN14MethodLiveness10BasicBlockEE11init_checksEv(ptr noundef nonnull align 8 dereferenceable(24) %0) #1 comdat align 2 {
  %2 = alloca ptr, align 8
  store ptr %0, ptr %2, align 8
  ret void
}

; Function Attrs: mustprogress nounwind uwtable
define linkonce_odr hidden void @_ZN21GrowableArrayMetadataC2EP5Arena(ptr noundef nonnull align 8 dereferenceable(8) %0, ptr noundef %1) unnamed_addr #1 comdat align 2 {
  %3 = alloca ptr, align 8
  %4 = alloca ptr, align 8
  store ptr %0, ptr %3, align 8
  store ptr %1, ptr %4, align 8
  %5 = load ptr, ptr %3, align 8
  %6 = getelementptr inbounds %class.GrowableArrayMetadata, ptr %5, i32 0, i32 0
  %7 = load ptr, ptr %4, align 8
  %8 = call noundef i64 @_ZN21GrowableArrayMetadata4bitsEP5Arena(ptr noundef %7)
  store i64 %8, ptr %6, align 8
  ret void
}

; Function Attrs: mustprogress nounwind uwtable
define linkonce_odr hidden void @_ZN26GrowableArrayWithAllocatorIPN14MethodLiveness10BasicBlockE13GrowableArrayIS2_EEC2EPS2_iiRKS2_(ptr noundef nonnull align 8 dereferenceable(16) %0, ptr noundef %1, i32 noundef %2, i32 noundef %3, ptr noundef nonnull align 8 dereferenceable(8) %4) unnamed_addr #1 comdat align 2 {
  %6 = alloca ptr, align 8
  %7 = alloca ptr, align 8
  %8 = alloca i32, align 4
  %9 = alloca i32, align 4
  %10 = alloca ptr, align 8
  %11 = alloca i32, align 4
  store ptr %0, ptr %6, align 8
  store ptr %1, ptr %7, align 8
  store i32 %2, ptr %8, align 4
  store i32 %3, ptr %9, align 4
  store ptr %4, ptr %10, align 8
  %12 = load ptr, ptr %6, align 8
  %13 = load ptr, ptr %7, align 8
  %14 = load i32, ptr %8, align 4
  %15 = load i32, ptr %9, align 4
  call void @_ZN17GrowableArrayViewIPN14MethodLiveness10BasicBlockEEC2EPS2_ii(ptr noundef nonnull align 8 dereferenceable(16) %12, ptr noundef %13, i32 noundef %14, i32 noundef %15)
  store i32 0, ptr %11, align 4
  br label %16

16:                                               ; preds = %27, %5
  %17 = load i32, ptr %11, align 4
  %18 = load i32, ptr %9, align 4
  %19 = icmp slt i32 %17, %18
  br i1 %19, label %20, label %30

20:                                               ; preds = %16
  %21 = load ptr, ptr %7, align 8
  %22 = load i32, ptr %11, align 4
  %23 = sext i32 %22 to i64
  %24 = getelementptr inbounds ptr, ptr %21, i64 %23
  %25 = load ptr, ptr %10, align 8
  %26 = load ptr, ptr %25, align 8
  store ptr %26, ptr %24, align 8
  br label %27

27:                                               ; preds = %20
  %28 = load i32, ptr %11, align 4
  %29 = add nsw i32 %28, 1
  store i32 %29, ptr %11, align 4
  br label %16, !llvm.loop !25

30:                                               ; preds = %16
  br label %31

31:                                               ; preds = %40, %30
  %32 = load i32, ptr %11, align 4
  %33 = load i32, ptr %8, align 4
  %34 = icmp slt i32 %32, %33
  br i1 %34, label %35, label %43

35:                                               ; preds = %31
  %36 = load ptr, ptr %7, align 8
  %37 = load i32, ptr %11, align 4
  %38 = sext i32 %37 to i64
  %39 = getelementptr inbounds ptr, ptr %36, i64 %38
  store ptr null, ptr %39, align 8
  br label %40

40:                                               ; preds = %35
  %41 = load i32, ptr %11, align 4
  %42 = add nsw i32 %41, 1
  store i32 %42, ptr %11, align 4
  br label %31, !llvm.loop !26

43:                                               ; preds = %31
  ret void
}

; Function Attrs: mustprogress nounwind uwtable
define linkonce_odr hidden noundef ptr @_ZN13GrowableArrayIPN14MethodLiveness10BasicBlockEE8allocateEiP5Arena(i32 noundef %0, ptr noundef %1) #1 comdat align 2 {
  %3 = alloca i32, align 4
  %4 = alloca ptr, align 8
  store i32 %0, ptr %3, align 4
  store ptr %1, ptr %4, align 8
  %5 = load i32, ptr %3, align 4
  %6 = load ptr, ptr %4, align 8
  %7 = call noundef ptr @_ZN27GrowableArrayArenaAllocator8allocateEiiP5Arena(i32 noundef %5, i32 noundef 8, ptr noundef %6)
  ret ptr %7
}

; Function Attrs: mustprogress nounwind uwtable
define linkonce_odr hidden void @_ZN13GrowableArrayIPN14MethodLiveness10BasicBlockEEC2EP5ArenaiiRKS2_(ptr noundef nonnull align 8 dereferenceable(24) %0, ptr noundef %1, i32 noundef %2, i32 noundef %3, ptr noundef nonnull align 8 dereferenceable(8) %4) unnamed_addr #1 comdat align 2 {
  %6 = alloca ptr, align 8
  %7 = alloca ptr, align 8
  %8 = alloca i32, align 4
  %9 = alloca i32, align 4
  %10 = alloca ptr, align 8
  store ptr %0, ptr %6, align 8
  store ptr %1, ptr %7, align 8
  store i32 %2, ptr %8, align 4
  store i32 %3, ptr %9, align 4
  store ptr %4, ptr %10, align 8
  %11 = load ptr, ptr %6, align 8
  %12 = load i32, ptr %8, align 4
  %13 = load ptr, ptr %7, align 8
  %14 = call noundef ptr @_ZN13GrowableArrayIPN14MethodLiveness10BasicBlockEE8allocateEiP5Arena(i32 noundef %12, ptr noundef %13)
  %15 = load i32, ptr %8, align 4
  %16 = load i32, ptr %9, align 4
  %17 = load ptr, ptr %10, align 8
  call void @_ZN26GrowableArrayWithAllocatorIPN14MethodLiveness10BasicBlockE13GrowableArrayIS2_EEC2EPS2_iiRKS2_(ptr noundef nonnull align 8 dereferenceable(16) %11, ptr noundef %14, i32 noundef %15, i32 noundef %16, ptr noundef nonnull align 8 dereferenceable(8) %17)
  %18 = getelementptr inbounds %class.GrowableArray, ptr %11, i32 0, i32 1
  %19 = load ptr, ptr %7, align 8
  call void @_ZN21GrowableArrayMetadataC2EP5Arena(ptr noundef nonnull align 8 dereferenceable(8) %18, ptr noundef %19)
  call void @_ZNK13GrowableArrayIPN14MethodLiveness10BasicBlockEE11init_checksEv(ptr noundef nonnull align 8 dereferenceable(24) %11)
  ret void
}

; Function Attrs: mustprogress nounwind uwtable
define linkonce_odr hidden noundef i32 @_ZNK14MethodLiveness17bit_map_size_bitsEv(ptr noundef nonnull align 8 dereferenceable(80) %0) #1 comdat align 2 {
  %2 = alloca ptr, align 8
  store ptr %0, ptr %2, align 8
  %3 = load ptr, ptr %2, align 8
  %4 = getelementptr inbounds %class.MethodLiveness, ptr %3, i32 0, i32 3
  %5 = load i32, ptr %4, align 4
  ret i32 %5
}

; Function Attrs: mustprogress nounwind uwtable
define linkonce_odr hidden noundef ptr @_ZNK14MethodLiveness5arenaEv(ptr noundef nonnull align 8 dereferenceable(80) %0) #1 comdat align 2 {
  %2 = alloca ptr, align 8
  store ptr %0, ptr %2, align 8
  %3 = load ptr, ptr %2, align 8
  %4 = getelementptr inbounds %class.MethodLiveness, ptr %3, i32 0, i32 1
  %5 = load ptr, ptr %4, align 8
  ret ptr %5
}

; Function Attrs: mustprogress nounwind uwtable
define hidden void @_ZN14MethodLiveness10BasicBlockC2EPS_ii(ptr noundef nonnull align 8 dereferenceable(169) %0, ptr noundef %1, i32 noundef %2, i32 noundef %3) unnamed_addr #1 align 2 {
  %5 = alloca ptr, align 8
  %6 = alloca ptr, align 8
  %7 = alloca i32, align 4
  %8 = alloca i32, align 4
  %9 = alloca ptr, align 8
  %10 = alloca ptr, align 8
  store ptr %0, ptr %5, align 8
  store ptr %1, ptr %6, align 8
  store i32 %2, ptr %7, align 4
  store i32 %3, ptr %8, align 4
  %11 = load ptr, ptr %5, align 8
  %12 = getelementptr inbounds %"class.MethodLiveness::BasicBlock", ptr %11, i32 0, i32 3
  %13 = load ptr, ptr %6, align 8
  %14 = call noundef ptr @_ZNK14MethodLiveness5arenaEv(ptr noundef nonnull align 8 dereferenceable(80) %13)
  %15 = load ptr, ptr %6, align 8
  %16 = call noundef i32 @_ZNK14MethodLiveness17bit_map_size_bitsEv(ptr noundef nonnull align 8 dereferenceable(80) %15)
  %17 = sext i32 %16 to i64
  call void @_ZN11ArenaBitMapC1EP5Arenamb(ptr noundef nonnull align 8 dereferenceable(24) %12, ptr noundef %14, i64 noundef %17, i1 noundef zeroext true)
  %18 = getelementptr inbounds %"class.MethodLiveness::BasicBlock", ptr %11, i32 0, i32 4
  %19 = load ptr, ptr %6, align 8
  %20 = call noundef ptr @_ZNK14MethodLiveness5arenaEv(ptr noundef nonnull align 8 dereferenceable(80) %19)
  %21 = load ptr, ptr %6, align 8
  %22 = call noundef i32 @_ZNK14MethodLiveness17bit_map_size_bitsEv(ptr noundef nonnull align 8 dereferenceable(80) %21)
  %23 = sext i32 %22 to i64
  call void @_ZN11ArenaBitMapC1EP5Arenamb(ptr noundef nonnull align 8 dereferenceable(24) %18, ptr noundef %20, i64 noundef %23, i1 noundef zeroext true)
  %24 = getelementptr inbounds %"class.MethodLiveness::BasicBlock", ptr %11, i32 0, i32 5
  %25 = load ptr, ptr %6, align 8
  %26 = call noundef ptr @_ZNK14MethodLiveness5arenaEv(ptr noundef nonnull align 8 dereferenceable(80) %25)
  %27 = load ptr, ptr %6, align 8
  %28 = call noundef i32 @_ZNK14MethodLiveness17bit_map_size_bitsEv(ptr noundef nonnull align 8 dereferenceable(80) %27)
  %29 = sext i32 %28 to i64
  call void @_ZN11ArenaBitMapC1EP5Arenamb(ptr noundef nonnull align 8 dereferenceable(24) %24, ptr noundef %26, i64 noundef %29, i1 noundef zeroext true)
  %30 = getelementptr inbounds %"class.MethodLiveness::BasicBlock", ptr %11, i32 0, i32 6
  %31 = load ptr, ptr %6, align 8
  %32 = call noundef ptr @_ZNK14MethodLiveness5arenaEv(ptr noundef nonnull align 8 dereferenceable(80) %31)
  %33 = load ptr, ptr %6, align 8
  %34 = call noundef i32 @_ZNK14MethodLiveness17bit_map_size_bitsEv(ptr noundef nonnull align 8 dereferenceable(80) %33)
  %35 = sext i32 %34 to i64
  call void @_ZN11ArenaBitMapC1EP5Arenamb(ptr noundef nonnull align 8 dereferenceable(24) %30, ptr noundef %32, i64 noundef %35, i1 noundef zeroext true)
  %36 = getelementptr inbounds %"class.MethodLiveness::BasicBlock", ptr %11, i32 0, i32 7
  %37 = load ptr, ptr %6, align 8
  %38 = call noundef ptr @_ZNK14MethodLiveness5arenaEv(ptr noundef nonnull align 8 dereferenceable(80) %37)
  %39 = load ptr, ptr %6, align 8
  %40 = call noundef i32 @_ZNK14MethodLiveness17bit_map_size_bitsEv(ptr noundef nonnull align 8 dereferenceable(80) %39)
  %41 = sext i32 %40 to i64
  call void @_ZN11ArenaBitMapC1EP5Arenamb(ptr noundef nonnull align 8 dereferenceable(24) %36, ptr noundef %38, i64 noundef %41, i1 noundef zeroext true)
  %42 = getelementptr inbounds %"class.MethodLiveness::BasicBlock", ptr %11, i32 0, i32 8
  store i32 -1, ptr %42, align 8
  %43 = load ptr, ptr %6, align 8
  %44 = getelementptr inbounds %"class.MethodLiveness::BasicBlock", ptr %11, i32 0, i32 0
  store ptr %43, ptr %44, align 8
  %45 = load i32, ptr %7, align 4
  %46 = getelementptr inbounds %"class.MethodLiveness::BasicBlock", ptr %11, i32 0, i32 1
  store i32 %45, ptr %46, align 8
  %47 = load i32, ptr %8, align 4
  %48 = getelementptr inbounds %"class.MethodLiveness::BasicBlock", ptr %11, i32 0, i32 2
  store i32 %47, ptr %48, align 4
  %49 = load ptr, ptr %6, align 8
  %50 = call noundef ptr @_ZNK14MethodLiveness5arenaEv(ptr noundef nonnull align 8 dereferenceable(80) %49)
  %51 = call noundef ptr @_ZN6AnyObjnwEmP5Arena(i64 noundef 24, ptr noundef %50)
  %52 = load ptr, ptr %6, align 8
  %53 = call noundef ptr @_ZNK14MethodLiveness5arenaEv(ptr noundef nonnull align 8 dereferenceable(80) %52)
  store ptr null, ptr %9, align 8
  call void @_ZN13GrowableArrayIPN14MethodLiveness10BasicBlockEEC2EP5ArenaiiRKS2_(ptr noundef nonnull align 8 dereferenceable(24) %51, ptr noundef %53, i32 noundef 5, i32 noundef 0, ptr noundef nonnull align 8 dereferenceable(8) %9)
  %54 = getelementptr inbounds %"class.MethodLiveness::BasicBlock", ptr %11, i32 0, i32 10
  store ptr %51, ptr %54, align 8
  %55 = load ptr, ptr %6, align 8
  %56 = call noundef ptr @_ZNK14MethodLiveness5arenaEv(ptr noundef nonnull align 8 dereferenceable(80) %55)
  %57 = call noundef ptr @_ZN6AnyObjnwEmP5Arena(i64 noundef 24, ptr noundef %56)
  %58 = load ptr, ptr %6, align 8
  %59 = call noundef ptr @_ZNK14MethodLiveness5arenaEv(ptr noundef nonnull align 8 dereferenceable(80) %58)
  store ptr null, ptr %10, align 8
  call void @_ZN13GrowableArrayIPN14MethodLiveness10BasicBlockEEC2EP5ArenaiiRKS2_(ptr noundef nonnull align 8 dereferenceable(24) %57, ptr noundef %59, i32 noundef 5, i32 noundef 0, ptr noundef nonnull align 8 dereferenceable(8) %10)
  %60 = getelementptr inbounds %"class.MethodLiveness::BasicBlock", ptr %11, i32 0, i32 11
  store ptr %57, ptr %60, align 8
  ret void
}