; Function Attrs: mustprogress nounwind uwtable
define hidden void @_ZN14MethodLiveness10BasicBlockC2EPS_ii(ptr noundef nonnull align 8 dereferenceable(169) %0, ptr noundef %1, i32 noundef %2, i32 noundef %3) unnamed_addr #0 align 2 {
  %5 = getelementptr inbounds i8, ptr %0, i64 16
  %6 = getelementptr inbounds i8, ptr %1, i64 8
  %7 = load ptr, ptr %6, align 8
  %8 = getelementptr inbounds i8, ptr %1, i64 20
  %9 = load i32, ptr %8, align 4
  %10 = sext i32 %9 to i64
  tail call void @_ZN11ArenaBitMapC1EP5Arenamb(ptr noundef nonnull align 8 dereferenceable(24) %5, ptr noundef %7, i64 noundef %10, i1 noundef zeroext true) #12
  %11 = getelementptr inbounds i8, ptr %0, i64 40
  %12 = load ptr, ptr %6, align 8
  %13 = load i32, ptr %8, align 4
  %14 = sext i32 %13 to i64
  tail call void @_ZN11ArenaBitMapC1EP5Arenamb(ptr noundef nonnull align 8 dereferenceable(24) %11, ptr noundef %12, i64 noundef %14, i1 noundef zeroext true) #12
  %15 = getelementptr inbounds i8, ptr %0, i64 64
  %16 = load ptr, ptr %6, align 8
  %17 = load i32, ptr %8, align 4
  %18 = sext i32 %17 to i64
  tail call void @_ZN11ArenaBitMapC1EP5Arenamb(ptr noundef nonnull align 8 dereferenceable(24) %15, ptr noundef %16, i64 noundef %18, i1 noundef zeroext true) #12
  %19 = getelementptr inbounds i8, ptr %0, i64 88
  %20 = load ptr, ptr %6, align 8
  %21 = load i32, ptr %8, align 4
  %22 = sext i32 %21 to i64
  tail call void @_ZN11ArenaBitMapC1EP5Arenamb(ptr noundef nonnull align 8 dereferenceable(24) %19, ptr noundef %20, i64 noundef %22, i1 noundef zeroext true) #12
  %23 = getelementptr inbounds i8, ptr %0, i64 112
  %24 = load ptr, ptr %6, align 8
  %25 = load i32, ptr %8, align 4
  %26 = sext i32 %25 to i64
  tail call void @_ZN11ArenaBitMapC1EP5Arenamb(ptr noundef nonnull align 8 dereferenceable(24) %23, ptr noundef %24, i64 noundef %26, i1 noundef zeroext true) #12
  %27 = getelementptr inbounds i8, ptr %0, i64 136
  store i32 -1, ptr %27, align 8
  store ptr %1, ptr %0, align 8
  %28 = getelementptr inbounds i8, ptr %0, i64 8
  store i32 %2, ptr %28, align 8
  %29 = getelementptr inbounds i8, ptr %0, i64 12
  store i32 %3, ptr %29, align 4
  %30 = load ptr, ptr %6, align 8
  %31 = tail call noundef ptr @_ZN6AnyObjnwEmP5Arena(i64 noundef 24, ptr noundef %30) #12
  %32 = load ptr, ptr %6, align 8
  %33 = tail call noundef ptr @_ZN27GrowableArrayArenaAllocator8allocateEiiP5Arena(i32 noundef 5, i32 noundef 8, ptr noundef %32) #12
  store i32 0, ptr %31, align 4
  %34 = getelementptr inbounds i8, ptr %31, i64 4
  store i32 5, ptr %34, align 4
  %35 = getelementptr inbounds i8, ptr %31, i64 8
  store ptr %33, ptr %35, align 8
  tail call void @llvm.memset.p0.i64(ptr noundef nonnull align 8 dereferenceable(40) %33, i8 0, i64 40, i1 false)
  %36 = getelementptr inbounds i8, ptr %31, i64 16
  %37 = ptrtoint ptr %32 to i64
  store i64 %37, ptr %36, align 8
  %38 = getelementptr inbounds i8, ptr %0, i64 144
  store ptr %31, ptr %38, align 8
  %39 = load ptr, ptr %6, align 8
  %40 = tail call noundef ptr @_ZN6AnyObjnwEmP5Arena(i64 noundef 24, ptr noundef %39) #12
  %41 = load ptr, ptr %6, align 8
  %42 = tail call noundef ptr @_ZN27GrowableArrayArenaAllocator8allocateEiiP5Arena(i32 noundef 5, i32 noundef 8, ptr noundef %41) #12
  store i32 0, ptr %40, align 4
  %43 = getelementptr inbounds i8, ptr %40, i64 4
  store i32 5, ptr %43, align 4
  %44 = getelementptr inbounds i8, ptr %40, i64 8
  store ptr %42, ptr %44, align 8
  tail call void @llvm.memset.p0.i64(ptr noundef nonnull align 8 dereferenceable(40) %42, i8 0, i64 40, i1 false)
  %45 = getelementptr inbounds i8, ptr %40, i64 16
  %46 = ptrtoint ptr %41 to i64
  store i64 %46, ptr %45, align 8
  %47 = getelementptr inbounds i8, ptr %0, i64 152
  store ptr %40, ptr %47, align 8
  ret void
}